(lp0
S'poi'
p1
aS'salary'
p2
aS'bonus'
p3
aS'sent_to_poi_percent'
p4
aS'total_stock_value'
p5
aS'exercised_stock_options'
p6
aS'deferred_income'
p7
aS'restricted_stock'
p8
aS'long_term_incentive'
p9
a.